; Function Attrs: mustprogress uwtable
define hidden void @_ZNK2cv7details10Chessboard10detectImplERKNS_11_InputArrayERSt6vectorINS_8KeyPointESaIS6_EES4_(ptr noundef nonnull align 8 dereferenceable(36) %0, ptr noundef nonnull align 8 dereferenceable(24) %1, ptr noundef nonnull align 8 captures(none) dereferenceable(24) %2, ptr noundef nonnull align 8 dereferenceable(24) %3) unnamed_addr #5 align 2 personality ptr @__gxx_personality_v0 {
  %5 = alloca %"class.std::vector.4", align 8
  %6 = alloca %"class.cv::Mat", align 8
  %7 = alloca %"class.cv::Mat", align 8
  call void @llvm.lifetime.start.p0(i64 96, ptr nonnull %6) #37
  %8 = tail call noundef i32 @_ZNK2cv11_InputArray4kindEv(ptr noundef nonnull align 8 dereferenceable(24) %1), !noalias !800
  %9 = icmp eq i32 %8, 65536
  br i1 %9, label %10, label %13

10:                                               ; preds = %4
  %11 = getelementptr inbounds nuw i8, ptr %1, i64 8
  %12 = load ptr, ptr %11, align 8, !tbaa !43, !noalias !800
  call void @_ZN2cv3MatC1ERKS0_(ptr noundef nonnull align 8 dereferenceable(96) %6, ptr noundef nonnull align 8 dereferenceable(96) %12)
  br label %_ZNK2cv11_InputArray6getMatEi.exit

13:                                               ; preds = %4
  call void @_ZNK2cv11_InputArray7getMat_Ei(ptr dead_on_unwind nonnull writable sret(%"class.cv::Mat") align 8 %6, ptr noundef nonnull align 8 dereferenceable(24) %1, i32 noundef -1)
  br label %_ZNK2cv11_InputArray6getMatEi.exit

_ZNK2cv11_InputArray6getMatEi.exit:               ; preds = %10, %13
  call void @llvm.lifetime.start.p0(i64 96, ptr nonnull %7) #37
  %14 = invoke noundef i32 @_ZNK2cv11_InputArray4kindEv(ptr noundef nonnull align 8 dereferenceable(24) %3)
          to label %.noexc unwind label %29

.noexc:                                           ; preds = %_ZNK2cv11_InputArray6getMatEi.exit
  %15 = icmp eq i32 %14, 65536
  br i1 %15, label %16, label %19

16:                                               ; preds = %.noexc
  %17 = getelementptr inbounds nuw i8, ptr %3, i64 8
  %18 = load ptr, ptr %17, align 8, !tbaa !43, !noalias !803
  invoke void @_ZN2cv3MatC1ERKS0_(ptr noundef nonnull align 8 dereferenceable(96) %7, ptr noundef nonnull align 8 dereferenceable(96) %18)
          to label %_ZNK2cv11_InputArray6getMatEi.exit9 unwind label %29

19:                                               ; preds = %.noexc
  invoke void @_ZNK2cv11_InputArray7getMat_Ei(ptr dead_on_unwind nonnull writable sret(%"class.cv::Mat") align 8 %7, ptr noundef nonnull align 8 dereferenceable(24) %3, i32 noundef -1)
          to label %_ZNK2cv11_InputArray6getMatEi.exit9 unwind label %29

_ZNK2cv11_InputArray6getMatEi.exit9:              ; preds = %16, %19
  call void @llvm.lifetime.start.p0(i64 24, ptr nonnull %5) #37
  call void @llvm.memset.p0.i64(ptr noundef nonnull align 8 dereferenceable(24) %5, i8 0, i64 24, i1 false)
  invoke void @_ZNK2cv7details10Chessboard10detectImplERKNS_3MatERSt6vectorINS_8KeyPointESaIS6_EERS5_IS2_SaIS2_EES4_(ptr noundef nonnull align 8 dereferenceable(36) %0, ptr noundef nonnull align 8 dereferenceable(96) %6, ptr noundef nonnull align 8 dereferenceable(24) %2, ptr noundef nonnull align 8 dereferenceable(24) %5, ptr noundef nonnull align 8 dereferenceable(96) %7)
          to label %20 unwind label %.body

20:                                               ; preds = %_ZNK2cv11_InputArray6getMatEi.exit9
  %21 = load ptr, ptr %5, align 8, !tbaa !107
  %22 = getelementptr inbounds nuw i8, ptr %5, i64 8
  %23 = load ptr, ptr %22, align 8, !tbaa !105
  %.not4.i.i.i.i.i = icmp eq ptr %21, %23
  br i1 %.not4.i.i.i.i.i, label %_ZSt8_DestroyIPN2cv3MatES1_EvT_S3_RSaIT0_E.exit.i.i, label %.lr.ph.i.i.i.i.i

.lr.ph.i.i.i.i.i:                                 ; preds = %20, %.lr.ph.i.i.i.i.i
  %.05.i.i.i.i.i = phi ptr [ %24, %.lr.ph.i.i.i.i.i ], [ %21, %20 ]
  call void @_ZN2cv3MatD1Ev(ptr noundef nonnull align 8 dereferenceable(96) %.05.i.i.i.i.i) #37
  %24 = getelementptr inbounds nuw i8, ptr %.05.i.i.i.i.i, i64 96
  %.not.i.i.i.i.i = icmp eq ptr %24, %23
  br i1 %.not.i.i.i.i.i, label %_ZSt8_DestroyIPN2cv3MatES1_EvT_S3_RSaIT0_E.exitthread-pre-split.i.i, label %.lr.ph.i.i.i.i.i, !llvm.loop !147

_ZSt8_DestroyIPN2cv3MatES1_EvT_S3_RSaIT0_E.exitthread-pre-split.i.i: ; preds = %.lr.ph.i.i.i.i.i
  %.pr.i.i = load ptr, ptr %5, align 8, !tbaa !107
  br label %_ZSt8_DestroyIPN2cv3MatES1_EvT_S3_RSaIT0_E.exit.i.i

_ZSt8_DestroyIPN2cv3MatES1_EvT_S3_RSaIT0_E.exit.i.i: ; preds = %_ZSt8_DestroyIPN2cv3MatES1_EvT_S3_RSaIT0_E.exitthread-pre-split.i.i, %20
  %25 = phi ptr [ %.pr.i.i, %_ZSt8_DestroyIPN2cv3MatES1_EvT_S3_RSaIT0_E.exitthread-pre-split.i.i ], [ %21, %20 ]
  %.not.i.i.i.i = icmp eq ptr %25, null
  br i1 %.not.i.i.i.i, label %28, label %26

26:                                               ; preds = %_ZSt8_DestroyIPN2cv3MatES1_EvT_S3_RSaIT0_E.exit.i.i
  call void @_ZdlPv(ptr noundef nonnull %25) #38
  br label %28

.body:                                            ; preds = %_ZNK2cv11_InputArray6getMatEi.exit9
  %27 = landingpad { ptr, i32 }
          cleanup
  call void @_ZNSt6vectorIN2cv3MatESaIS1_EED2Ev(ptr noundef nonnull align 8 dereferenceable(24) %5) #37
  call void @llvm.lifetime.end.p0(i64 24, ptr nonnull %5) #37
  call void @_ZN2cv3MatD1Ev(ptr noundef nonnull align 8 dereferenceable(96) %7) #37
  br label %31

28:                                               ; preds = %26, %_ZSt8_DestroyIPN2cv3MatES1_EvT_S3_RSaIT0_E.exit.i.i
  call void @llvm.lifetime.end.p0(i64 24, ptr nonnull %5) #37
  call void @_ZN2cv3MatD1Ev(ptr noundef nonnull align 8 dereferenceable(96) %7) #37
  call void @llvm.lifetime.end.p0(i64 96, ptr nonnull %7) #37
  call void @_ZN2cv3MatD1Ev(ptr noundef nonnull align 8 dereferenceable(96) %6) #37
  call void @llvm.lifetime.end.p0(i64 96, ptr nonnull %6) #37
  ret void

29:                                               ; preds = %19, %16, %_ZNK2cv11_InputArray6getMatEi.exit
  %30 = landingpad { ptr, i32 }
          cleanup
  br label %31

31:                                               ; preds = %.body, %29
  %.pn = phi { ptr, i32 } [ %27, %.body ], [ %30, %29 ]
  call void @llvm.lifetime.end.p0(i64 96, ptr nonnull %7) #37
  call void @_ZN2cv3MatD1Ev(ptr noundef nonnull align 8 dereferenceable(96) %6) #37
  call void @llvm.lifetime.end.p0(i64 96, ptr nonnull %6) #37
  resume { ptr, i32 } %.pn
}